target datalayout = "e-m:e-p270:32:32-p271:32:32-p272:64:64-i64:64-i128:128-f80:128-n8:16:32:64-S128"
target triple = "x86_64-pc-linux-gnu"

%"class.cv::_OutputArray" = type { %"class.cv::_InputArray" }
%"class.cv::_InputArray" = type { i32, ptr, %"class.cv::Size_" }
%"class.cv::Size_" = type { i32, i32 }
%"class.cv::Mat" = type { i32, i32, i32, i32, ptr, ptr, ptr, ptr, ptr, ptr, %"struct.cv::MatSize", %"struct.cv::MatStep" }
%"struct.cv::MatSize" = type { ptr }
%"struct.cv::MatStep" = type { ptr, [2 x i64] }
%"class.cv::Range" = type { i32, i32 }

; Function Attrs: mustprogress nounwind uwtable
define linkonce_odr hidden void @_ZN2cv5Size_IiEC2Ev(ptr noundef nonnull align 4 dereferenceable(8) %0) unnamed_addr #5 comdat align 2 {
  %2 = alloca ptr, align 8
  store ptr %0, ptr %2, align 8
  %3 = load ptr, ptr %2, align 8
  %4 = getelementptr inbounds %"class.cv::Size_", ptr %3, i32 0, i32 0
  store i32 0, ptr %4, align 4
  %5 = getelementptr inbounds %"class.cv::Size_", ptr %3, i32 0, i32 1
  store i32 0, ptr %5, align 4
  ret void
}

; Function Attrs: mustprogress nounwind uwtable
define linkonce_odr hidden void @_ZN2cv11_InputArrayD2Ev(ptr noundef nonnull align 8 dereferenceable(24) %0) unnamed_addr #5 comdat align 2 {
  %2 = alloca ptr, align 8
  store ptr %0, ptr %2, align 8
  ret void
}

; Function Attrs: mustprogress nounwind uwtable
define linkonce_odr hidden void @_ZN2cv11_InputArray4initEiPKv(ptr noundef nonnull align 8 dereferenceable(24) %0, i32 noundef %1, ptr noundef %2) #5 comdat align 2 {
  %4 = alloca ptr, align 8
  %5 = alloca i32, align 4
  %6 = alloca ptr, align 8
  store ptr %0, ptr %4, align 8
  store i32 %1, ptr %5, align 4
  store ptr %2, ptr %6, align 8
  %7 = load ptr, ptr %4, align 8
  %8 = load i32, ptr %5, align 4
  %9 = getelementptr inbounds %"class.cv::_InputArray", ptr %7, i32 0, i32 0
  store i32 %8, ptr %9, align 8
  %10 = load ptr, ptr %6, align 8
  %11 = getelementptr inbounds %"class.cv::_InputArray", ptr %7, i32 0, i32 1
  store ptr %10, ptr %11, align 8
  ret void
}

; Function Attrs: mustprogress uwtable
define linkonce_odr hidden void @_ZN2cv11_InputArrayC2Ev(ptr noundef nonnull align 8 dereferenceable(24) %0) unnamed_addr #4 comdat align 2 {
  %2 = alloca ptr, align 8
  store ptr %0, ptr %2, align 8
  %3 = load ptr, ptr %2, align 8
  %4 = getelementptr inbounds %"class.cv::_InputArray", ptr %3, i32 0, i32 2
  call void @_ZN2cv5Size_IiEC2Ev(ptr noundef nonnull align 4 dereferenceable(8) %4)
  call void @_ZN2cv11_InputArray4initEiPKv(ptr noundef nonnull align 8 dereferenceable(24) %3, i32 noundef 0, ptr noundef null)
  ret void
}

; Function Attrs: mustprogress nounwind uwtable
define linkonce_odr hidden void @_ZN2cv12_OutputArrayD2Ev(ptr noundef nonnull align 8 dereferenceable(24) %0) unnamed_addr #5 comdat align 2 {
  %2 = alloca ptr, align 8
  store ptr %0, ptr %2, align 8
  %3 = load ptr, ptr %2, align 8
  call void @_ZN2cv11_InputArrayD2Ev(ptr noundef nonnull align 8 dereferenceable(24) %3) #3
  ret void
}

; Function Attrs: mustprogress nounwind uwtable
define linkonce_odr hidden noundef i32 @_ZNK2cv3Mat4typeEv(ptr noundef nonnull align 8 dereferenceable(96) %0) #5 comdat align 2 {
  %2 = alloca ptr, align 8
  store ptr %0, ptr %2, align 8
  %3 = load ptr, ptr %2, align 8
  %4 = getelementptr inbounds %"class.cv::Mat", ptr %3, i32 0, i32 0
  %5 = load i32, ptr %4, align 8
  %6 = and i32 %5, 4095
  ret i32 %6
}

; Function Attrs: mustprogress uwtable
define linkonce_odr hidden void @_ZN2cv12_OutputArrayC2ERNS_3MatE(ptr noundef nonnull align 8 dereferenceable(24) %0, ptr noundef nonnull align 8 dereferenceable(96) %1) unnamed_addr #4 comdat align 2 personality ptr @__gxx_personality_v0 {
  %3 = alloca ptr, align 8
  %4 = alloca ptr, align 8
  %5 = alloca ptr, align 8
  %6 = alloca i32, align 4
  store ptr %0, ptr %3, align 8
  store ptr %1, ptr %4, align 8
  %7 = load ptr, ptr %3, align 8
  call void @_ZN2cv11_InputArrayC2Ev(ptr noundef nonnull align 8 dereferenceable(24) %7)
  %8 = load ptr, ptr %4, align 8
  invoke void @_ZN2cv11_InputArray4initEiPKv(ptr noundef nonnull align 8 dereferenceable(24) %7, i32 noundef 33619968, ptr noundef %8)
          to label %9 unwind label %10

9:                                                ; preds = %2
  ret void

10:                                               ; preds = %2
  %11 = landingpad { ptr, i32 }
          cleanup
  %12 = extractvalue { ptr, i32 } %11, 0
  store ptr %12, ptr %5, align 8
  %13 = extractvalue { ptr, i32 } %11, 1
  store i32 %13, ptr %6, align 4
  call void @_ZN2cv11_InputArrayD2Ev(ptr noundef nonnull align 8 dereferenceable(24) %7) #3
  br label %14

14:                                               ; preds = %10
  %15 = load ptr, ptr %5, align 8
  %16 = load i32, ptr %6, align 4
  %17 = insertvalue { ptr, i32 } poison, ptr %15, 0
  %18 = insertvalue { ptr, i32 } %17, i32 %16, 1
  resume { ptr, i32 } %18
}

; Function Attrs: mustprogress uwtable
define linkonce_odr hidden void @_ZNK2cv3MatclENS_5RangeES1_(ptr dead_on_unwind noalias writable sret(%"class.cv::Mat") align 8 %0, ptr noundef nonnull align 8 dereferenceable(96) %1, i64 %2, i64 %3) #4 comdat align 2 {
  %5 = alloca ptr, align 8
  %6 = alloca %"class.cv::Range", align 4
  %7 = alloca %"class.cv::Range", align 4
  %8 = alloca ptr, align 8
  store ptr %0, ptr %5, align 8
  store i64 %2, ptr %6, align 4
  store i64 %3, ptr %7, align 4
  store ptr %1, ptr %8, align 8
  %9 = load ptr, ptr %8, align 8
  call void @_ZN2cv3MatC1ERKS0_RKNS_5RangeES5_(ptr noundef nonnull align 8 dereferenceable(96) %0, ptr noundef nonnull align 8 dereferenceable(96) %9, ptr noundef nonnull align 4 dereferenceable(8) %6, ptr noundef nonnull align 4 dereferenceable(8) %7)
  ret void
}

; Function Attrs: mustprogress nounwind uwtable
define linkonce_odr hidden void @_ZN2cv5RangeC2Eii(ptr noundef nonnull align 4 dereferenceable(8) %0, i32 noundef %1, i32 noundef %2) unnamed_addr #5 comdat align 2 {
  %4 = alloca ptr, align 8
  %5 = alloca i32, align 4
  %6 = alloca i32, align 4
  store ptr %0, ptr %4, align 8
  store i32 %1, ptr %5, align 4
  store i32 %2, ptr %6, align 4
  %7 = load ptr, ptr %4, align 8
  %8 = getelementptr inbounds %"class.cv::Range", ptr %7, i32 0, i32 0
  %9 = load i32, ptr %5, align 4
  store i32 %9, ptr %8, align 4
  %10 = getelementptr inbounds %"class.cv::Range", ptr %7, i32 0, i32 1
  %11 = load i32, ptr %6, align 4
  store i32 %11, ptr %10, align 4
  ret void
}

; Function Attrs: mustprogress uwtable
define linkonce_odr hidden i64 @_ZN2cv5Range3allEv() #4 comdat align 2 {
  %1 = alloca %"class.cv::Range", align 4
  call void @_ZN2cv5RangeC2Eii(ptr noundef nonnull align 4 dereferenceable(8) %1, i32 noundef -2147483648, i32 noundef 2147483647)
  %2 = load i64, ptr %1, align 4
  ret i64 %2
}

; Function Attrs: mustprogress nounwind uwtable
define linkonce_odr hidden noundef i32 @_ZNK2cv3Mat8channelsEv(ptr noundef nonnull align 8 dereferenceable(96) %0) #5 comdat align 2 {
  %2 = alloca ptr, align 8
  store ptr %0, ptr %2, align 8
  %3 = load ptr, ptr %2, align 8
  %4 = getelementptr inbounds %"class.cv::Mat", ptr %3, i32 0, i32 0
  %5 = load i32, ptr %4, align 8
  %6 = and i32 %5, 4088
  %7 = ashr i32 %6, 3
  %8 = add nsw i32 %7, 1
  ret i32 %8
}

; Function Attrs: mustprogress uwtable
define hidden void @_Z11splitScreenRKN2cv3MatERS0_S3_S3_(ptr noundef nonnull align 8 dereferenceable(96) %0, ptr noundef nonnull align 8 dereferenceable(96) %1, ptr noundef nonnull align 8 dereferenceable(96) %2, ptr noundef nonnull align 8 dereferenceable(96) %3) #4 personality ptr @__gxx_personality_v0 {
  %5 = alloca ptr, align 8
  %6 = alloca ptr, align 8
  %7 = alloca ptr, align 8
  %8 = alloca ptr, align 8
  %9 = alloca i32, align 4
  %10 = alloca i32, align 4
  %11 = alloca i32, align 4
  %12 = alloca %"class.cv::Mat", align 8
  %13 = alloca %"class.cv::Range", align 4
  %14 = alloca %"class.cv::Range", align 4
  %15 = alloca ptr, align 8
  %16 = alloca i32, align 4
  %17 = alloca %"class.cv::Mat", align 8
  %18 = alloca %"class.cv::Range", align 4
  %19 = alloca %"class.cv::Range", align 4
  %20 = alloca %"class.cv::_OutputArray", align 8
  store ptr %0, ptr %5, align 8
  store ptr %1, ptr %6, align 8
  store ptr %2, ptr %7, align 8
  store ptr %3, ptr %8, align 8
  %21 = load ptr, ptr %5, align 8
  %22 = getelementptr inbounds %"class.cv::Mat", ptr %21, i32 0, i32 2
  %23 = load i32, ptr %22, align 8
  store i32 %23, ptr %9, align 4
  %24 = load ptr, ptr %5, align 8
  %25 = getelementptr inbounds %"class.cv::Mat", ptr %24, i32 0, i32 3
  %26 = load i32, ptr %25, align 4
  store i32 %26, ptr %10, align 4
  %27 = load ptr, ptr %5, align 8
  %28 = call noundef i32 @_ZNK2cv3Mat8channelsEv(ptr noundef nonnull align 8 dereferenceable(96) %27)
  store i32 %28, ptr %11, align 4
  %29 = load ptr, ptr %6, align 8
  %30 = load i32, ptr %9, align 4
  %31 = load i32, ptr %10, align 4
  %32 = mul nsw i32 2, %31
  %33 = load i32, ptr %11, align 4
  %34 = sub nsw i32 %33, 1
  %35 = shl i32 %34, 3
  %36 = add nsw i32 0, %35
  call void @_ZN2cv3Mat6createEiii(ptr noundef nonnull align 8 dereferenceable(96) %29, i32 noundef %30, i32 noundef %32, i32 noundef %36)
  %37 = load ptr, ptr %6, align 8
  %38 = call i64 @_ZN2cv5Range3allEv()
  store i64 %38, ptr %13, align 4
  %39 = load i32, ptr %10, align 4
  call void @_ZN2cv5RangeC2Eii(ptr noundef nonnull align 4 dereferenceable(8) %14, i32 noundef 0, i32 noundef %39)
  %40 = load i64, ptr %13, align 4
  %41 = load i64, ptr %14, align 4
  call void @_ZNK2cv3MatclENS_5RangeES1_(ptr dead_on_unwind writable sret(%"class.cv::Mat") align 8 %12, ptr noundef nonnull align 8 dereferenceable(96) %37, i64 %40, i64 %41)
  %42 = load ptr, ptr %7, align 8
  %43 = invoke noundef nonnull align 8 dereferenceable(96) ptr @_ZN2cv3MataSEOS0_(ptr noundef nonnull align 8 dereferenceable(96) %42, ptr noundef nonnull align 8 dereferenceable(96) %12)
          to label %44 unwind label %61

44:                                               ; preds = %4
  call void @_ZN2cv3MatD1Ev(ptr noundef nonnull align 8 dereferenceable(96) %12) #3
  %45 = load ptr, ptr %6, align 8
  %46 = call i64 @_ZN2cv5Range3allEv()
  store i64 %46, ptr %18, align 4
  %47 = load i32, ptr %10, align 4
  %48 = load i32, ptr %10, align 4
  %49 = mul nsw i32 2, %48
  call void @_ZN2cv5RangeC2Eii(ptr noundef nonnull align 4 dereferenceable(8) %19, i32 noundef %47, i32 noundef %49)
  %50 = load i64, ptr %18, align 4
  %51 = load i64, ptr %19, align 4
  call void @_ZNK2cv3MatclENS_5RangeES1_(ptr dead_on_unwind writable sret(%"class.cv::Mat") align 8 %17, ptr noundef nonnull align 8 dereferenceable(96) %45, i64 %50, i64 %51)
  %52 = load ptr, ptr %8, align 8
  %53 = invoke noundef nonnull align 8 dereferenceable(96) ptr @_ZN2cv3MataSEOS0_(ptr noundef nonnull align 8 dereferenceable(96) %52, ptr noundef nonnull align 8 dereferenceable(96) %17)
          to label %54 unwind label %65

54:                                               ; preds = %44
  call void @_ZN2cv3MatD1Ev(ptr noundef nonnull align 8 dereferenceable(96) %17) #3
  %55 = load ptr, ptr %5, align 8
  %56 = load ptr, ptr %7, align 8
  call void @_ZN2cv12_OutputArrayC2ERNS_3MatE(ptr noundef nonnull align 8 dereferenceable(24) %20, ptr noundef nonnull align 8 dereferenceable(96) %56)
  %57 = load ptr, ptr %7, align 8
  %58 = invoke noundef i32 @_ZNK2cv3Mat4typeEv(ptr noundef nonnull align 8 dereferenceable(96) %57)
          to label %59 unwind label %69

59:                                               ; preds = %54
  invoke void @_ZNK2cv3Mat9convertToERKNS_12_OutputArrayEidd(ptr noundef nonnull align 8 dereferenceable(96) %55, ptr noundef nonnull align 8 dereferenceable(24) %20, i32 noundef %58, double noundef 1.000000e+00, double noundef 0.000000e+00)
          to label %60 unwind label %69

60:                                               ; preds = %59
  call void @_ZN2cv12_OutputArrayD2Ev(ptr noundef nonnull align 8 dereferenceable(24) %20) #3
  ret void

61:                                               ; preds = %4
  %62 = landingpad { ptr, i32 }
          cleanup
  %63 = extractvalue { ptr, i32 } %62, 0
  store ptr %63, ptr %15, align 8
  %64 = extractvalue { ptr, i32 } %62, 1
  store i32 %64, ptr %16, align 4
  call void @_ZN2cv3MatD1Ev(ptr noundef nonnull align 8 dereferenceable(96) %12) #3
  br label %73

65:                                               ; preds = %44
  %66 = landingpad { ptr, i32 }
          cleanup
  %67 = extractvalue { ptr, i32 } %66, 0
  store ptr %67, ptr %15, align 8
  %68 = extractvalue { ptr, i32 } %66, 1
  store i32 %68, ptr %16, align 4
  call void @_ZN2cv3MatD1Ev(ptr noundef nonnull align 8 dereferenceable(96) %17) #3
  br label %73

69:                                               ; preds = %59, %54
  %70 = landingpad { ptr, i32 }
          cleanup
  %71 = extractvalue { ptr, i32 } %70, 0
  store ptr %71, ptr %15, align 8
  %72 = extractvalue { ptr, i32 } %70, 1
  store i32 %72, ptr %16, align 4
  call void @_ZN2cv12_OutputArrayD2Ev(ptr noundef nonnull align 8 dereferenceable(24) %20) #3
  br label %73

73:                                               ; preds = %69, %65, %61
  %74 = load ptr, ptr %15, align 8
  %75 = load i32, ptr %16, align 4
  %76 = insertvalue { ptr, i32 } poison, ptr %74, 0
  %77 = insertvalue { ptr, i32 } %76, i32 %75, 1
  resume { ptr, i32 } %77
}