; Function Attrs: mustprogress uwtable
define hidden void @_Z11splitScreenRKN2cv3MatERS0_S3_S3_(ptr noundef nonnull align 8 dereferenceable(96) %0, ptr noundef nonnull align 8 dereferenceable(96) %1, ptr noundef nonnull align 8 dereferenceable(96) %2, ptr noundef nonnull align 8 dereferenceable(96) %3) local_unnamed_addr #3 personality ptr @__gxx_personality_v0 {
  %5 = alloca %"class.cv::Range", align 8
  %6 = alloca %"class.cv::Range", align 8
  %7 = alloca %"class.cv::Range", align 8
  %8 = alloca %"class.cv::Range", align 8
  %9 = alloca %"class.cv::Mat", align 8
  %10 = alloca %"class.cv::Mat", align 8
  %11 = alloca %"class.cv::_OutputArray", align 8
  %12 = getelementptr inbounds nuw i8, ptr %0, i64 8
  %13 = load i32, ptr %12, align 8
  %14 = getelementptr inbounds nuw i8, ptr %0, i64 12
  %15 = load i32, ptr %14, align 4
  %16 = load i32, ptr %0, align 8
  %17 = and i32 %16, 4088
  %18 = shl nsw i32 %15, 1
  tail call void @_ZN2cv3Mat6createEiii(ptr noundef nonnull align 8 dereferenceable(96) %1, i32 noundef %13, i32 noundef %18, i32 noundef %17)
  %.sroa.222.0.insert.ext = zext i32 %15 to i64
  %.sroa.222.0.insert.shift = shl nuw i64 %.sroa.222.0.insert.ext, 32
  call void @llvm.lifetime.start.p0(i64 8, ptr nonnull %7)
  call void @llvm.lifetime.start.p0(i64 8, ptr nonnull %8)
  store i64 9223372034707292160, ptr %7, align 8, !noalias !14
  store i64 %.sroa.222.0.insert.shift, ptr %8, align 8, !noalias !14
  call void @_ZN2cv3MatC1ERKS0_RKNS_5RangeES5_(ptr noundef nonnull align 8 dereferenceable(96) %9, ptr noundef nonnull align 8 dereferenceable(96) %1, ptr noundef nonnull align 4 dereferenceable(8) %7, ptr noundef nonnull align 4 dereferenceable(8) %8)
  call void @llvm.lifetime.end.p0(i64 8, ptr nonnull %7)
  call void @llvm.lifetime.end.p0(i64 8, ptr nonnull %8)
  %19 = invoke noundef nonnull align 8 dereferenceable(96) ptr @_ZN2cv3MataSEOS0_(ptr noundef nonnull align 8 dereferenceable(96) %2, ptr noundef nonnull align 8 dereferenceable(96) %9)
          to label %20 unwind label %27

20:                                               ; preds = %4
  call void @_ZN2cv3MatD1Ev(ptr noundef nonnull align 8 dereferenceable(96) %9) #11
  %.sroa.2.0.insert.ext = zext i32 %18 to i64
  %.sroa.2.0.insert.shift = shl nuw i64 %.sroa.2.0.insert.ext, 32
  %.sroa.0.0.insert.insert = or disjoint i64 %.sroa.2.0.insert.shift, %.sroa.222.0.insert.ext
  call void @llvm.lifetime.start.p0(i64 8, ptr nonnull %5)
  call void @llvm.lifetime.start.p0(i64 8, ptr nonnull %6)
  store i64 9223372034707292160, ptr %5, align 8, !noalias !17
  store i64 %.sroa.0.0.insert.insert, ptr %6, align 8, !noalias !17
  call void @_ZN2cv3MatC1ERKS0_RKNS_5RangeES5_(ptr noundef nonnull align 8 dereferenceable(96) %10, ptr noundef nonnull align 8 dereferenceable(96) %1, ptr noundef nonnull align 4 dereferenceable(8) %5, ptr noundef nonnull align 4 dereferenceable(8) %6)
  call void @llvm.lifetime.end.p0(i64 8, ptr nonnull %5)
  call void @llvm.lifetime.end.p0(i64 8, ptr nonnull %6)
  %21 = invoke noundef nonnull align 8 dereferenceable(96) ptr @_ZN2cv3MataSEOS0_(ptr noundef nonnull align 8 dereferenceable(96) %3, ptr noundef nonnull align 8 dereferenceable(96) %10)
          to label %22 unwind label %29

22:                                               ; preds = %20
  call void @_ZN2cv3MatD1Ev(ptr noundef nonnull align 8 dereferenceable(96) %10) #11
  %23 = getelementptr inbounds nuw i8, ptr %11, i64 8
  %24 = getelementptr inbounds nuw i8, ptr %11, i64 16
  store i64 0, ptr %24, align 8
  store i32 33619968, ptr %11, align 8
  store ptr %2, ptr %23, align 8
  %25 = load i32, ptr %2, align 8
  %26 = and i32 %25, 4095
  call void @_ZNK2cv3Mat9convertToERKNS_12_OutputArrayEidd(ptr noundef nonnull align 8 dereferenceable(96) %0, ptr noundef nonnull align 8 dereferenceable(24) %11, i32 noundef %26, double noundef 1.000000e+00, double noundef 0.000000e+00)
  ret void

27:                                               ; preds = %4
  %28 = landingpad { ptr, i32 }
          cleanup
  br label %31

29:                                               ; preds = %20
  %30 = landingpad { ptr, i32 }
          cleanup
  br label %31

31:                                               ; preds = %29, %27
  %.sink = phi ptr [ %10, %29 ], [ %9, %27 ]
  %.pn = phi { ptr, i32 } [ %30, %29 ], [ %28, %27 ]
  call void @_ZN2cv3MatD1Ev(ptr noundef nonnull align 8 dereferenceable(96) %.sink) #11
  resume { ptr, i32 } %.pn
}